; Function Attrs: mustprogress uwtable
define internal void @_ZN5arrow8internal12_GLOBAL__N_117ThreadedTaskGroup14current_statusEv(ptr dead_on_unwind noalias writable sret(%"class.arrow::Status") align 8 %0, ptr noundef nonnull align 8 dereferenceable(176) %1) unnamed_addr #0 align 2 personality ptr @__gxx_personality_v0 {
  %3 = getelementptr inbounds nuw i8, ptr %1, i64 56
  %4 = tail call noundef i32 @pthread_mutex_lock(ptr noundef nonnull align 8 dereferenceable(40) %3) #23
  %.not.i.i = icmp eq i32 %4, 0
  br i1 %.not.i.i, label %_ZNSt10lock_guardISt5mutexEC2ERS0_.exit, label %5

5:                                                ; preds = %2
  tail call void @_ZSt20__throw_system_errori(i32 noundef %4) #24
  unreachable

_ZNSt10lock_guardISt5mutexEC2ERS0_.exit:          ; preds = %2
  %6 = getelementptr inbounds nuw i8, ptr %1, i64 144
  store ptr null, ptr %0, align 8, !tbaa !17
  invoke void @_ZN5arrow6Status8CopyFromERKS0_(ptr noundef nonnull align 8 dereferenceable(8) %0, ptr noundef nonnull align 8 dereferenceable(8) %6)
          to label %_ZN5arrow6StatusC2ERKS0_.exit unwind label %8

_ZN5arrow6StatusC2ERKS0_.exit:                    ; preds = %_ZNSt10lock_guardISt5mutexEC2ERS0_.exit
  %7 = tail call noundef i32 @pthread_mutex_unlock(ptr noundef nonnull align 8 dereferenceable(40) %3) #23
  ret void

8:                                                ; preds = %_ZNSt10lock_guardISt5mutexEC2ERS0_.exit
  %9 = landingpad { ptr, i32 }
          cleanup
  %10 = tail call noundef i32 @pthread_mutex_unlock(ptr noundef nonnull align 8 dereferenceable(40) %3) #23
  resume { ptr, i32 } %9
}